; Function Attrs: mustprogress nounwind uwtable
define dso_local void @_ZN5clang7CodeGen8CGCXXABID2Ev(ptr noundef nonnull align 8 captures(none) dereferenceable(24) initializes((0, 8)) %0) unnamed_addr #0 align 2 {
  store ptr getelementptr inbounds nuw inrange(-16, 760) (i8, ptr @_ZTVN5clang7CodeGen8CGCXXABIE, i64 16), ptr %0, align 8
  %2 = getelementptr inbounds nuw i8, ptr %0, i64 16
  %3 = load ptr, ptr %2, align 8
  %.not.i = icmp eq ptr %3, null
  br i1 %.not.i, label %_ZNSt10unique_ptrIN5clang13MangleContextESt14default_deleteIS1_EED2Ev.exit, label %_ZNKSt14default_deleteIN5clang13MangleContextEEclEPS1_.exit.i

_ZNKSt14default_deleteIN5clang13MangleContextEEclEPS1_.exit.i: ; preds = %1
  %4 = load ptr, ptr %3, align 8
  %5 = getelementptr inbounds nuw i8, ptr %4, i64 16
  %6 = load ptr, ptr %5, align 8
  tail call void %6(ptr noundef nonnull align 8 dereferenceable(128) %3) #17
  br label %_ZNSt10unique_ptrIN5clang13MangleContextESt14default_deleteIS1_EED2Ev.exit

_ZNSt10unique_ptrIN5clang13MangleContextESt14default_deleteIS1_EED2Ev.exit: ; preds = %1, %_ZNKSt14default_deleteIN5clang13MangleContextEEclEPS1_.exit.i
  store ptr null, ptr %2, align 8
  ret void
}